target datalayout = "e-m:e-p270:32:32-p271:32:32-p272:64:64-i64:64-i128:128-f80:128-n8:16:32:64-S128"
target triple = "x86_64-pc-linux-gnu"

@.str.1 = private unnamed_addr constant [20 x i8] c"toast_compression.c\00", align 1
@.str.2 = private unnamed_addr constant [37 x i8] c"compression method lz4 not supported\00", align 1
@.str.3 = private unnamed_addr constant [69 x i8] c"This functionality requires the server to be built with lz4 support.\00", align 1
@__func__.lz4_decompress_datum_slice = private unnamed_addr constant [27 x i8] c"lz4_decompress_datum_slice\00", align 1

; Function Attrs: nounwind uwtable
define dso_local ptr @lz4_decompress_datum_slice(ptr noundef %0, i32 noundef %1) #0 {
  %3 = alloca ptr, align 8
  %4 = alloca i32, align 4
  store ptr %0, ptr %3, align 8
  store i32 %1, ptr %4, align 4
  br label %5

5:                                                ; preds = %2
  br i1 true, label %6, label %8

6:                                                ; preds = %5
  %7 = call zeroext i1 @errstart_cold(i32 noundef 21, ptr noundef null) #7
  br i1 %7, label %10, label %14

8:                                                ; preds = %5
  %9 = call zeroext i1 @errstart(i32 noundef 21, ptr noundef null)
  br i1 %9, label %10, label %14

10:                                               ; preds = %8, %6
  %11 = call i32 @errcode(i32 noundef 1088)
  %12 = call i32 (ptr, ...) @errmsg(ptr noundef @.str.2)
  %13 = call i32 (ptr, ...) @errdetail(ptr noundef @.str.3)
  call void @errfinish(ptr noundef @.str.1, i32 noundef 218, ptr noundef @__func__.lz4_decompress_datum_slice)
  br label %14

14:                                               ; preds = %10, %8, %6
  unreachable

15:                                               ; No predecessors!
  ret ptr null
}