; Function Attrs: cold noreturn nounwind uwtable
define dso_local noalias noundef nonnull ptr @lz4_decompress_datum_slice(ptr noundef readnone captures(none) %0, i32 noundef %1) local_unnamed_addr #3 {
  %3 = tail call zeroext i1 @errstart_cold(i32 noundef 21, ptr noundef null) #8
  tail call void @llvm.assume(i1 %3)
  %4 = tail call i32 @errcode(i32 noundef 1088) #7
  %5 = tail call i32 (ptr, ...) @errmsg(ptr noundef nonnull @.str.2) #7
  %6 = tail call i32 (ptr, ...) @errdetail(ptr noundef nonnull @.str.3) #7
  tail call void @errfinish(ptr noundef nonnull @.str.1, i32 noundef 218, ptr noundef nonnull @__func__.lz4_decompress_datum_slice) #7
  unreachable
}